target datalayout = "e-m:e-p270:32:32-p271:32:32-p272:64:64-i64:64-i128:128-f80:128-n8:16:32:64-S128"
target triple = "x86_64-pc-linux-gnu"

%struct.bloom_filter = type { i32, i64, i64, [0 x i8] }

; Function Attrs: nounwind uwtable
define internal i32 @optimal_k(i64 noundef %0, i64 noundef %1) #0 {
  %3 = alloca i64, align 8
  %4 = alloca i64, align 8
  %5 = alloca i32, align 4
  store i64 %0, ptr %3, align 8
  store i64 %1, ptr %4, align 8
  call void @llvm.lifetime.start.p0(i64 4, ptr %5) #6
  %6 = call double @log(double noundef 2.000000e+00) #6
  %7 = load i64, ptr %3, align 8
  %8 = uitofp i64 %7 to double
  %9 = fmul double %6, %8
  %10 = load i64, ptr %4, align 8
  %11 = sitofp i64 %10 to double
  %12 = fdiv double %9, %11
  %13 = call double @llvm.rint.f64(double %12)
  %14 = fptosi double %13 to i32
  store i32 %14, ptr %5, align 4
  %15 = load i32, ptr %5, align 4
  %16 = icmp slt i32 %15, 10
  br i1 %16, label %17, label %19

17:                                               ; preds = %2
  %18 = load i32, ptr %5, align 4
  br label %20

19:                                               ; preds = %2
  br label %20

20:                                               ; preds = %19, %17
  %21 = phi i32 [ %18, %17 ], [ 10, %19 ]
  %22 = icmp sgt i32 1, %21
  br i1 %22, label %23, label %24

23:                                               ; preds = %20
  br label %32

24:                                               ; preds = %20
  %25 = load i32, ptr %5, align 4
  %26 = icmp slt i32 %25, 10
  br i1 %26, label %27, label %29

27:                                               ; preds = %24
  %28 = load i32, ptr %5, align 4
  br label %30

29:                                               ; preds = %24
  br label %30

30:                                               ; preds = %29, %27
  %31 = phi i32 [ %28, %27 ], [ 10, %29 ]
  br label %32

32:                                               ; preds = %30, %23
  %33 = phi i32 [ 1, %23 ], [ %31, %30 ]
  call void @llvm.lifetime.end.p0(i64 4, ptr %5) #6
  ret i32 %33
}

; Function Attrs: nounwind uwtable
define internal i32 @my_bloom_power(i64 noundef %0) #0 {
  %2 = alloca i64, align 8
  %3 = alloca i32, align 4
  store i64 %0, ptr %2, align 8
  call void @llvm.lifetime.start.p0(i64 4, ptr %3) #6
  store i32 -1, ptr %3, align 4
  br label %4

4:                                                ; preds = %12, %1
  %5 = load i64, ptr %2, align 8
  %6 = icmp ugt i64 %5, 0
  br i1 %6, label %7, label %10

7:                                                ; preds = %4
  %8 = load i32, ptr %3, align 4
  %9 = icmp slt i32 %8, 32
  br label %10

10:                                               ; preds = %7, %4
  %11 = phi i1 [ false, %4 ], [ %9, %7 ]
  br i1 %11, label %12, label %17

12:                                               ; preds = %10
  %13 = load i32, ptr %3, align 4
  %14 = add i32 %13, 1
  store i32 %14, ptr %3, align 4
  %15 = load i64, ptr %2, align 8
  %16 = lshr i64 %15, 1
  store i64 %16, ptr %2, align 8
  br label %4, !llvm.loop !4

17:                                               ; preds = %10
  %18 = load i32, ptr %3, align 4
  call void @llvm.lifetime.end.p0(i64 4, ptr %3) #6
  ret i32 %18
}

; Function Attrs: nounwind uwtable
define dso_local ptr @bloom_create(i64 noundef %0, i32 noundef %1, i64 noundef %2) #0 {
  %4 = alloca i64, align 8
  %5 = alloca i32, align 4
  %6 = alloca i64, align 8
  %7 = alloca ptr, align 8
  %8 = alloca i32, align 4
  %9 = alloca i64, align 8
  %10 = alloca i64, align 8
  store i64 %0, ptr %4, align 8
  store i32 %1, ptr %5, align 4
  store i64 %2, ptr %6, align 8
  call void @llvm.lifetime.start.p0(i64 8, ptr %7) #6
  call void @llvm.lifetime.start.p0(i64 4, ptr %8) #6
  call void @llvm.lifetime.start.p0(i64 8, ptr %9) #6
  call void @llvm.lifetime.start.p0(i64 8, ptr %10) #6
  %11 = load i32, ptr %5, align 4
  %12 = sext i32 %11 to i64
  %13 = mul i64 %12, 1024
  %14 = load i64, ptr %4, align 8
  %15 = mul i64 %14, 2
  %16 = icmp ult i64 %13, %15
  br i1 %16, label %17, label %21

17:                                               ; preds = %3
  %18 = load i32, ptr %5, align 4
  %19 = sext i32 %18 to i64
  %20 = mul i64 %19, 1024
  br label %24

21:                                               ; preds = %3
  %22 = load i64, ptr %4, align 8
  %23 = mul i64 %22, 2
  br label %24

24:                                               ; preds = %21, %17
  %25 = phi i64 [ %20, %17 ], [ %23, %21 ]
  store i64 %25, ptr %9, align 8
  %26 = load i64, ptr %9, align 8
  %27 = icmp ugt i64 1048576, %26
  br i1 %27, label %28, label %29

28:                                               ; preds = %24
  br label %31

29:                                               ; preds = %24
  %30 = load i64, ptr %9, align 8
  br label %31

31:                                               ; preds = %29, %28
  %32 = phi i64 [ 1048576, %28 ], [ %30, %29 ]
  store i64 %32, ptr %9, align 8
  %33 = load i64, ptr %9, align 8
  %34 = mul i64 %33, 8
  %35 = call i32 @my_bloom_power(i64 noundef %34)
  store i32 %35, ptr %8, align 4
  %36 = load i32, ptr %8, align 4
  %37 = zext i32 %36 to i64
  %38 = shl i64 1, %37
  store i64 %38, ptr %10, align 8
  %39 = load i64, ptr %10, align 8
  %40 = udiv i64 %39, 8
  store i64 %40, ptr %9, align 8
  %41 = load i64, ptr %9, align 8
  %42 = mul i64 1, %41
  %43 = add i64 24, %42
  %44 = call ptr @palloc0(i64 noundef %43)
  store ptr %44, ptr %7, align 8
  %45 = load i64, ptr %10, align 8
  %46 = load i64, ptr %4, align 8
  %47 = call i32 @optimal_k(i64 noundef %45, i64 noundef %46)
  %48 = load ptr, ptr %7, align 8
  %49 = getelementptr inbounds nuw %struct.bloom_filter, ptr %48, i32 0, i32 0
  store i32 %47, ptr %49, align 8
  %50 = load i64, ptr %6, align 8
  %51 = load ptr, ptr %7, align 8
  %52 = getelementptr inbounds nuw %struct.bloom_filter, ptr %51, i32 0, i32 1
  store i64 %50, ptr %52, align 8
  %53 = load i64, ptr %10, align 8
  %54 = load ptr, ptr %7, align 8
  %55 = getelementptr inbounds nuw %struct.bloom_filter, ptr %54, i32 0, i32 2
  store i64 %53, ptr %55, align 8
  %56 = load ptr, ptr %7, align 8
  call void @llvm.lifetime.end.p0(i64 8, ptr %10) #6
  call void @llvm.lifetime.end.p0(i64 8, ptr %9) #6
  call void @llvm.lifetime.end.p0(i64 4, ptr %8) #6
  call void @llvm.lifetime.end.p0(i64 8, ptr %7) #6
  ret ptr %56
}